target datalayout = "e-m:e-p270:32:32-p271:32:32-p272:64:64-i64:64-i128:128-f80:128-n8:16:32:64-S128"
target triple = "x86_64-pc-linux-gnu"

%struct.strvec = type { ptr, i64, i64 }
%struct.credential_capability = type { i8, [3 x i8] }
%struct.credential = type { %struct.string_list, %struct.strvec, %struct.strvec, %struct.strvec, i16, [2 x i8], %struct.credential_capability, %struct.credential_capability, ptr, ptr, ptr, ptr, ptr, ptr, ptr, i64, ptr }
%struct.string_list = type { ptr, i64, i64, i8, ptr }

; Function Attrs: nounwind uwtable
define internal void @credential_set_capability(ptr noundef %0, i32 noundef %1) #0 {
  %3 = alloca ptr, align 8
  %4 = alloca i32, align 4
  store ptr %0, ptr %3, align 8, !tbaa !28
  store i32 %1, ptr %4, align 4, !tbaa !27
  %5 = load i32, ptr %4, align 4, !tbaa !27
  switch i32 %5, label %21 [
    i32 1, label %6
    i32 2, label %11
    i32 3, label %16
  ]

6:                                                ; preds = %2
  %7 = load ptr, ptr %3, align 8, !tbaa !28
  %8 = load i8, ptr %7, align 4
  %9 = and i8 %8, -2
  %10 = or i8 %9, 1
  store i8 %10, ptr %7, align 4
  br label %21

11:                                               ; preds = %2
  %12 = load ptr, ptr %3, align 8, !tbaa !28
  %13 = load i8, ptr %12, align 4
  %14 = and i8 %13, -3
  %15 = or i8 %14, 2
  store i8 %15, ptr %12, align 4
  br label %21

16:                                               ; preds = %2
  %17 = load ptr, ptr %3, align 8, !tbaa !28
  %18 = load i8, ptr %17, align 4
  %19 = and i8 %18, -5
  %20 = or i8 %19, 4
  store i8 %20, ptr %17, align 4
  br label %21

21:                                               ; preds = %2, %16, %11, %6
  ret void
}

; Function Attrs: nounwind uwtable
define dso_local void @credential_set_all_capabilities(ptr noundef %0, i32 noundef %1) #0 {
  %3 = alloca ptr, align 8
  %4 = alloca i32, align 4
  store ptr %0, ptr %3, align 8, !tbaa !4
  store i32 %1, ptr %4, align 4, !tbaa !27
  %5 = load ptr, ptr %3, align 8, !tbaa !4
  %6 = getelementptr inbounds nuw %struct.credential, ptr %5, i32 0, i32 6
  %7 = load i32, ptr %4, align 4, !tbaa !27
  call void @credential_set_capability(ptr noundef %6, i32 noundef %7)
  %8 = load ptr, ptr %3, align 8, !tbaa !4
  %9 = getelementptr inbounds nuw %struct.credential, ptr %8, i32 0, i32 7
  %10 = load i32, ptr %4, align 4, !tbaa !27
  call void @credential_set_capability(ptr noundef %9, i32 noundef %10)
  ret void
}