; Function Attrs: mustprogress nofree norecurse nosync nounwind willreturn memory(argmem: readwrite) uwtable
define dso_local void @credential_set_all_capabilities(ptr noundef captures(none) %0, i32 noundef %1) local_unnamed_addr #0 {
  %switch.tableidx = add i32 %1, -1
  %3 = icmp ult i32 %switch.tableidx, 3
  br i1 %3, label %switch.lookup, label %credential_set_capability.exit

switch.lookup:                                    ; preds = %2
  %4 = getelementptr inbounds nuw i8, ptr %0, i64 116
  %switch.cast = trunc nuw i32 %switch.tableidx to i24
  %switch.shiftamt = shl nuw nsw i24 %switch.cast, 3
  %switch.downshift = lshr i24 262657, %switch.shiftamt
  %switch.masked = trunc i24 %switch.downshift to i8
  %5 = load i8, ptr %4, align 4
  %6 = or i8 %5, %switch.masked
  store i8 %6, ptr %4, align 4
  br label %credential_set_capability.exit

credential_set_capability.exit:                   ; preds = %2, %switch.lookup
  %switch.tableidx7 = add i32 %1, -1
  %7 = icmp ult i32 %switch.tableidx7, 3
  br i1 %7, label %switch.lookup6, label %credential_set_capability.exit5

switch.lookup6:                                   ; preds = %credential_set_capability.exit
  %8 = getelementptr inbounds nuw i8, ptr %0, i64 120
  %switch.cast8 = trunc nuw i32 %switch.tableidx7 to i24
  %switch.shiftamt9 = shl nuw nsw i24 %switch.cast8, 3
  %switch.downshift10 = lshr i24 262657, %switch.shiftamt9
  %switch.masked11 = trunc i24 %switch.downshift10 to i8
  %9 = load i8, ptr %8, align 4
  %10 = or i8 %9, %switch.masked11
  store i8 %10, ptr %8, align 4
  br label %credential_set_capability.exit5

credential_set_capability.exit5:                  ; preds = %credential_set_capability.exit, %switch.lookup6
  ret void
}